(dp1
S'lrate'
p2
F1e-08
sS'model_cost_coeff'
p3
F0.10000000000000001
sS'decay_c'
p4
F0
sS'patience'
p5
I15
sS'max_epochs'
p6
I5000
sS'dispFreq'
p7
I100
sS'validFreq'
p8
I-1
sS'clip_c'
p9
F1000
sS'saveto'
p10
S'models/attention_maxlen[400]_dimWord256_dim256.npz'
p11
sS'dim_coverage'
p12
I121
sS'valid_batch_size'
p13
I8
sS'dim_dec'
p14
I256
sS'optimizer'
p15
S'adadelta_weightnoise'
p16
sS'alpha_c'
p17
F0
sS'batch_size'
p18
I8
sS'encoder'
p19
S'gru'
p20
sS'dim_target'
p21
I111
sS'decoder'
p22
S'gru_cond'
p23
sS'valid_datasets'
p24
(lp25
S'../data/online-test.pkl'
p26
aS'../data/test_caption.txt'
p27
asS'dim_feature'
p28
I9
sS'use_dropout'
p29
I00
sS'datasets'
p30
(lp31
S'../data/online-train.pkl'
p32
aS'../data/train_caption.txt'
p33
aS'../data/align-online-train.pkl'
p34
asS'dim_word'
p35
I256
sS'sampleFreq'
p36
I-1
sS'dim_enc'
p37
(lp38
I250
aI250
aI250
aI250
asS'dictionaries'
p39
(lp40
S'../data/dictionary.txt'
p41
asS'saveFreq'
p42
I-1
sS'maxlen'
p43
I400
sS'finish_after'
p44
I10000000
sS'down_sample'
p45
(lp46
I0
aI0
aI1
aI1
asS'reload_'
p47
I01
sS'gamma'
p48
F0.10000000000000001
s.