(dp1
S'optimizer'
p2
S'adadelta'
p3
sS'alpha_c'
p4
F0
sS'lrate'
p5
F1e-08
sS'batch_size'
p6
I8
sS'decay_c'
p7
F0
sS'dim_target'
p8
I111
sS'patience'
p9
I15
sS'decoder'
p10
S'gru_cond'
p11
sS'valid_datasets'
p12
(lp13
S'../data/online-test.pkl'
p14
aS'../data/test_caption.txt'
p15
asS'max_epochs'
p16
I5000
sS'dispFreq'
p17
I100
sS'encoder'
p18
S'gru'
p19
sS'dim_feature'
p20
I9
sS'validFreq'
p21
I-1
sS'use_dropout'
p22
I00
sS'datasets'
p23
(lp24
S'../data/online-train.pkl'
p25
aS'../data/train_caption.txt'
p26
aS'../data/align-online-train.pkl'
p27
asS'dim_word'
p28
I256
sS'sampleFreq'
p29
I-1
sS'dim_enc'
p30
(lp31
I250
aI250
aI250
aI250
asS'dictionaries'
p32
(lp33
S'../data/dictionary.txt'
p34
asS'finish_after'
p35
I10000000
sS'clip_c'
p36
F1000
sS'saveFreq'
p37
I-1
sS'maxlen'
p38
I400
sS'saveto'
p39
S'models/attention_maxlen[400]_dimWord256_dim256.npz'
p40
sS'dim_coverage'
p41
I121
sS'valid_batch_size'
p42
I8
sS'down_sample'
p43
(lp44
I0
aI0
aI1
aI1
asS'dim_dec'
p45
I256
sS'reload_'
p46
I00
sS'gamma'
p47
F0.10000000000000001
s.